; Function Attrs: mustprogress nofree norecurse nosync nounwind willreturn memory(argmem: readwrite) uwtable
define internal void @fixup_jumps(ptr noundef writeonly %0, ptr noundef readonly captures(none) %1) #6 {
  %.not = icmp eq ptr %0, null
  br i1 %.not, label %7, label %3

3:                                                ; preds = %2
  %4 = getelementptr inbounds nuw i8, ptr %1, i64 64
  %5 = load i32, ptr %4, align 8
  %6 = getelementptr inbounds nuw i8, ptr %0, i64 8
  store i32 %5, ptr %6, align 8
  br label %7

7:                                                ; preds = %3, %2
  ret void
}